; Function Attrs: mustprogress uwtable
define void @_ZN32pxrInternal_v0_24__pxrReserved__16HdVtBufferSource8TruncateEm(ptr noundef nonnull align 8 captures(none) dereferenceable(64) %0, i64 noundef %1) local_unnamed_addr #3 align 2 personality ptr @__gxx_personality_v0 {
  %3 = alloca %"class.pxrInternal_v0_24__pxrReserved__::TfCallContext", align 8
  %4 = getelementptr inbounds nuw i8, ptr %0, i64 56
  %5 = load i64, ptr %4, align 8
  %6 = icmp ugt i64 %1, %5
  br i1 %6, label %7, label %22

7:                                                ; preds = %2
  store ptr @.str, ptr %3, align 8
  %8 = getelementptr inbounds nuw i8, ptr %3, i64 8
  store ptr @__func__._ZN32pxrInternal_v0_24__pxrReserved__16HdVtBufferSource8TruncateEm, ptr %8, align 8
  %9 = getelementptr inbounds nuw i8, ptr %3, i64 16
  store i64 184, ptr %9, align 8
  %10 = getelementptr inbounds nuw i8, ptr %3, i64 24
  store ptr @__PRETTY_FUNCTION__._ZN32pxrInternal_v0_24__pxrReserved__16HdVtBufferSource8TruncateEm, ptr %10, align 8
  %11 = getelementptr inbounds nuw i8, ptr %3, i64 32
  store i8 0, ptr %11, align 8
  %12 = getelementptr inbounds nuw i8, ptr %0, i64 16
  %13 = load ptr, ptr %12, align 8
  %14 = ptrtoint ptr %13 to i64
  %15 = and i64 %14, -8
  %.not.i = icmp eq i64 %15, 0
  br i1 %.not.i, label %_ZNK32pxrInternal_v0_24__pxrReserved__7TfToken7GetTextEv.exit, label %16

16:                                               ; preds = %7
  %17 = inttoptr i64 %15 to ptr
  %18 = getelementptr inbounds nuw i8, ptr %17, i64 16
  %19 = tail call noundef ptr @_ZNKSt7__cxx1112basic_stringIcSt11char_traitsIcESaIcEE5c_strEv(ptr noundef nonnull align 8 dereferenceable(32) %18) #18
  %.pre = load i64, ptr %4, align 8
  br label %_ZNK32pxrInternal_v0_24__pxrReserved__7TfToken7GetTextEv.exit

_ZNK32pxrInternal_v0_24__pxrReserved__7TfToken7GetTextEv.exit: ; preds = %7, %16
  %20 = phi i64 [ %.pre, %16 ], [ %5, %7 ]
  %21 = phi ptr [ %19, %16 ], [ @.str.10, %7 ]
  call void (ptr, i32, ptr, ...) @_ZN32pxrInternal_v0_24__pxrReserved__18Tf_PostErrorHelperERKNS_13TfCallContextENS_16TfDiagnosticTypeEPKcz(ptr noundef nonnull align 8 dereferenceable(33) %3, i32 noundef 1, ptr noundef nonnull @.str.1, ptr noundef %21, i64 noundef %20, i64 noundef %1)
  br label %23

22:                                               ; preds = %2
  store i64 %1, ptr %4, align 8
  br label %23

23:                                               ; preds = %22, %_ZNK32pxrInternal_v0_24__pxrReserved__7TfToken7GetTextEv.exit
  ret void
}